target datalayout = "e-m:e-p270:32:32-p271:32:32-p272:64:64-i64:64-i128:128-f80:128-n8:16:32:64-S128"
target triple = "x86_64-pc-linux-gnu"

%"class.std::__cxx11::basic_string" = type { %"struct.std::__cxx11::basic_string<char>::_Alloc_hider", i64, %union.anon }
%"struct.std::__cxx11::basic_string<char>::_Alloc_hider" = type { ptr }
%union.anon = type { i64, [8 x i8] }
%"struct.std::_Rb_tree_header" = type { %"struct.std::_Rb_tree_node_base", i64 }
%"struct.std::_Rb_tree_node_base" = type { i32, ptr, ptr, ptr }
%"struct.benchmark::BenchmarkReporter::Run" = type { %"struct.benchmark::BenchmarkName", i64, i64, i32, %"class.std::__cxx11::basic_string", i32, %"class.std::__cxx11::basic_string", i32, %"class.std::__cxx11::basic_string", i64, i64, i64, i64, i32, double, double, double, i8, i32, ptr, i64, ptr, i8, i8, %"class.std::map.12", ptr, double }
%"struct.benchmark::BenchmarkName" = type { %"class.std::__cxx11::basic_string", %"class.std::__cxx11::basic_string", %"class.std::__cxx11::basic_string", %"class.std::__cxx11::basic_string", %"class.std::__cxx11::basic_string", %"class.std::__cxx11::basic_string", %"class.std::__cxx11::basic_string", %"class.std::__cxx11::basic_string" }
%"class.std::map.12" = type { %"class.std::_Rb_tree.13" }
%"class.std::_Rb_tree.13" = type { %"struct.std::_Rb_tree<std::__cxx11::basic_string<char>, std::pair<const std::__cxx11::basic_string<char>, benchmark::Counter>, std::_Select1st<std::pair<const std::__cxx11::basic_string<char>, benchmark::Counter>>, std::less<std::__cxx11::basic_string<char>>>::_Rb_tree_impl" }
%"struct.std::_Rb_tree<std::__cxx11::basic_string<char>, std::pair<const std::__cxx11::basic_string<char>, benchmark::Counter>, std::_Select1st<std::pair<const std::__cxx11::basic_string<char>, benchmark::Counter>>, std::less<std::__cxx11::basic_string<char>>>::_Rb_tree_impl" = type { [8 x i8], %"struct.std::_Rb_tree_header" }

; Function Attrs: inlinehint mustprogress nounwind uwtable
define linkonce_odr hidden noundef double @_ZN9benchmark21GetTimeUnitMultiplierENS_8TimeUnitE(i32 noundef %0) #9 comdat {
  %2 = alloca double, align 8
  %3 = alloca i32, align 4
  store i32 %0, ptr %3, align 4, !tbaa !109
  %4 = load i32, ptr %3, align 4, !tbaa !109
  switch i32 %4, label %9 [
    i32 3, label %5
    i32 2, label %6
    i32 1, label %7
    i32 0, label %8
  ]

5:                                                ; preds = %1
  store double 1.000000e+00, ptr %2, align 8
  br label %10

6:                                                ; preds = %1
  store double 1.000000e+03, ptr %2, align 8
  br label %10

7:                                                ; preds = %1
  store double 1.000000e+06, ptr %2, align 8
  br label %10

8:                                                ; preds = %1
  store double 1.000000e+09, ptr %2, align 8
  br label %10

9:                                                ; preds = %1
  unreachable

10:                                               ; preds = %8, %7, %6, %5
  %11 = load double, ptr %2, align 8
  ret double %11
}

; Function Attrs: mustprogress uwtable
define noundef double @_ZNK9benchmark17BenchmarkReporter3Run19GetAdjustedRealTimeEv(ptr noundef nonnull align 8 dereferenceable(560) %0) #6 align 2 {
  %2 = alloca ptr, align 8
  %3 = alloca double, align 8
  store ptr %0, ptr %2, align 8, !tbaa !84
  %4 = load ptr, ptr %2, align 8
  call void @llvm.lifetime.start.p0(i64 8, ptr %3) #3
  %5 = getelementptr inbounds nuw %"struct.benchmark::BenchmarkReporter::Run", ptr %4, i32 0, i32 14
  %6 = load double, ptr %5, align 8, !tbaa !106
  %7 = getelementptr inbounds nuw %"struct.benchmark::BenchmarkReporter::Run", ptr %4, i32 0, i32 13
  %8 = load i32, ptr %7, align 8, !tbaa !107
  %9 = call noundef double @_ZN9benchmark21GetTimeUnitMultiplierENS_8TimeUnitE(i32 noundef %8)
  %10 = fmul double %6, %9
  store double %10, ptr %3, align 8, !tbaa !51
  %11 = getelementptr inbounds nuw %"struct.benchmark::BenchmarkReporter::Run", ptr %4, i32 0, i32 9
  %12 = load i64, ptr %11, align 8, !tbaa !108
  %13 = icmp ne i64 %12, 0
  br i1 %13, label %14, label %20

14:                                               ; preds = %1
  %15 = getelementptr inbounds nuw %"struct.benchmark::BenchmarkReporter::Run", ptr %4, i32 0, i32 9
  %16 = load i64, ptr %15, align 8, !tbaa !108
  %17 = sitofp i64 %16 to double
  %18 = load double, ptr %3, align 8, !tbaa !51
  %19 = fdiv double %18, %17
  store double %19, ptr %3, align 8, !tbaa !51
  br label %20

20:                                               ; preds = %14, %1
  %21 = load double, ptr %3, align 8, !tbaa !51
  call void @llvm.lifetime.end.p0(i64 8, ptr %3) #3
  ret double %21
}